	.file	"ExtremeC_examples_chapter9_1.cpp"
	.text
	.section	.rodata
	.type	_ZStL19piecewise_construct, @object
	.size	_ZStL19piecewise_construct, 1
_ZStL19piecewise_construct:
	.zero	1
	.local	_ZStL8__ioinit
	.comm	_ZStL8__ioinit,1,1
	.section	.text._ZN4Rect4AreaEv,"axG",@progbits,_ZN4Rect4AreaEv,comdat
	.align 2
	.weak	_ZN4Rect4AreaEv
	.type	_ZN4Rect4AreaEv, @function
_ZN4Rect4AreaEv:
.LFB1564:
	.cfi_startproc
	pushl	%ebp
	.cfi_def_cfa_offset 8
	.cfi_offset 5, -8
	movl	%esp, %ebp
	.cfi_def_cfa_register 5
	call	__x86.get_pc_thunk.ax
	addl	$_GLOBAL_OFFSET_TABLE_, %eax
	movl	8(%ebp), %eax
	movl	(%eax), %edx
	movl	8(%ebp), %eax
	movl	4(%eax), %eax
	imull	%edx, %eax
	popl	%ebp
	.cfi_restore 5
	.cfi_def_cfa 4, 4
	ret
	.cfi_endproc
.LFE1564:
	.size	_ZN4Rect4AreaEv, .-_ZN4Rect4AreaEv
	.section	.rodata
.LC0:
	.string	"Area: "
	.text
	.globl	main
	.type	main, @function
main:
.LFB1565:
	.cfi_startproc
	leal	4(%esp), %ecx
	.cfi_def_cfa 1, 0
	andl	$-16, %esp
	pushl	-4(%ecx)
	pushl	%ebp
	.cfi_escape 0x10,0x5,0x2,0x75,0
	movl	%esp, %ebp
	pushl	%ebx
	pushl	%ecx
	.cfi_escape 0xf,0x3,0x75,0x78,0x6
	.cfi_escape 0x10,0x3,0x2,0x75,0x7c
	subl	$16, %esp
	call	__x86.get_pc_thunk.bx
	addl	$_GLOBAL_OFFSET_TABLE_, %ebx
	movl	$10, -20(%ebp)
	movl	$25, -16(%ebp)
	subl	$12, %esp
	leal	-20(%ebp), %eax
	pushl	%eax
	call	_ZN4Rect4AreaEv
	addl	$16, %esp
	movl	%eax, -12(%ebp)
	subl	$8, %esp
	leal	.LC0@GOTOFF(%ebx), %eax
	pushl	%eax
	movl	_ZSt4cout@GOT(%ebx), %eax
	pushl	%eax
	call	_ZStlsISt11char_traitsIcEERSt13basic_ostreamIcT_ES5_PKc@PLT
	addl	$16, %esp
	subl	$8, %esp
	pushl	-12(%ebp)
	pushl	%eax
	call	_ZNSolsEi@PLT
	addl	$16, %esp
	subl	$8, %esp
	movl	_ZSt4endlIcSt11char_traitsIcEERSt13basic_ostreamIT_T0_ES6_@GOT(%ebx), %edx
	pushl	%edx
	pushl	%eax
	call	_ZNSolsEPFRSoS_E@PLT
	addl	$16, %esp
	movl	$0, %eax
	leal	-8(%ebp), %esp
	popl	%ecx
	.cfi_restore 1
	.cfi_def_cfa 1, 0
	popl	%ebx
	.cfi_restore 3
	popl	%ebp
	.cfi_restore 5
	leal	-4(%ecx), %esp
	.cfi_def_cfa 4, 4
	ret
	.cfi_endproc
.LFE1565:
	.size	main, .-main
	.type	_Z41__static_initialization_and_destruction_0ii, @function
_Z41__static_initialization_and_destruction_0ii:
.LFB2069:
	.cfi_startproc
	pushl	%ebp
	.cfi_def_cfa_offset 8
	.cfi_offset 5, -8
	movl	%esp, %ebp
	.cfi_def_cfa_register 5
	pushl	%ebx
	subl	$4, %esp
	.cfi_offset 3, -12
	call	__x86.get_pc_thunk.bx
	addl	$_GLOBAL_OFFSET_TABLE_, %ebx
	cmpl	$1, 8(%ebp)
	jne	.L7
	cmpl	$65535, 12(%ebp)
	jne	.L7
	subl	$12, %esp
	leal	_ZStL8__ioinit@GOTOFF(%ebx), %eax
	pushl	%eax
	call	_ZNSt8ios_base4InitC1Ev@PLT
	addl	$16, %esp
	subl	$4, %esp
	leal	__dso_handle@GOTOFF(%ebx), %eax
	pushl	%eax
	leal	_ZStL8__ioinit@GOTOFF(%ebx), %eax
	pushl	%eax
	movl	_ZNSt8ios_base4InitD1Ev@GOT(%ebx), %eax
	pushl	%eax
	call	__cxa_atexit@PLT
	addl	$16, %esp
.L7:
	nop
	movl	-4(%ebp), %ebx
	leave
	.cfi_restore 5
	.cfi_restore 3
	.cfi_def_cfa 4, 4
	ret
	.cfi_endproc
.LFE2069:
	.size	_Z41__static_initialization_and_destruction_0ii, .-_Z41__static_initialization_and_destruction_0ii
	.type	_GLOBAL__sub_I_main, @function
_GLOBAL__sub_I_main:
.LFB2070:
	.cfi_startproc
	pushl	%ebp
	.cfi_def_cfa_offset 8
	.cfi_offset 5, -8
	movl	%esp, %ebp
	.cfi_def_cfa_register 5
	subl	$8, %esp
	call	__x86.get_pc_thunk.ax
	addl	$_GLOBAL_OFFSET_TABLE_, %eax
	subl	$8, %esp
	pushl	$65535
	pushl	$1
	call	_Z41__static_initialization_and_destruction_0ii
	addl	$16, %esp
	leave
	.cfi_restore 5
	.cfi_def_cfa 4, 4
	ret
	.cfi_endproc
.LFE2070:
	.size	_GLOBAL__sub_I_main, .-_GLOBAL__sub_I_main
	.section	.init_array,"aw"
	.align 4
	.long	_GLOBAL__sub_I_main
	.section	.text.__x86.get_pc_thunk.ax,"axG",@progbits,__x86.get_pc_thunk.ax,comdat
	.globl	__x86.get_pc_thunk.ax
	.hidden	__x86.get_pc_thunk.ax
	.type	__x86.get_pc_thunk.ax, @function
__x86.get_pc_thunk.ax:
.LFB2071:
	.cfi_startproc
	movl	(%esp), %eax
	ret
	.cfi_endproc
.LFE2071:
	.section	.text.__x86.get_pc_thunk.bx,"axG",@progbits,__x86.get_pc_thunk.bx,comdat
	.globl	__x86.get_pc_thunk.bx
	.hidden	__x86.get_pc_thunk.bx
	.type	__x86.get_pc_thunk.bx, @function
__x86.get_pc_thunk.bx:
.LFB2072:
	.cfi_startproc
	movl	(%esp), %ebx
	ret
	.cfi_endproc
.LFE2072:
	.hidden	__dso_handle
	.ident	"GCC: (Debian 10.2.1-6) 10.2.1 20210110"
	.section	.note.GNU-stack,"",@progbits
